; ModuleID = '48/43.c'
source_filename = "48/43.c"
target datalayout = "e-m:e-p270:32:32-p271:32:32-p272:64:64-i64:64-f80:128-n8:16:32:64-S128"
target triple = "x86_64-pc-linux-gnu"

@.str = private unnamed_addr constant [6 x i8] c"%d %d\00", align 1
@A = common dso_local global [11 x [11 x i32]] zeroinitializer, align 16
@N = common dso_local global i32 0, align 4
@tmp = common dso_local global [11 x [11 x i32]] zeroinitializer, align 16
@.str.1 = private unnamed_addr constant [4 x i8] c"%d \00", align 1
@.str.2 = private unnamed_addr constant [4 x i8] c"%d\0A\00", align 1

; Function Attrs: noinline nounwind uwtable
define dso_local i32 @main() #0 {
  %1 = alloca i32, align 4
  %2 = alloca i32, align 4
  %3 = alloca i32, align 4
  %4 = alloca i32, align 4
  %5 = alloca i32, align 4
  %6 = alloca i32, align 4
  store i32 0, i32* %1, align 4
  %7 = call i32 (i8*, ...) @__isoc99_scanf(i8* getelementptr inbounds ([6 x i8], [6 x i8]* @.str, i64 0, i64 0), i32* getelementptr inbounds ([11 x [11 x i32]], [11 x [11 x i32]]* @A, i64 0, i64 5, i64 5), i32* @N)
  store i32 0, i32* %2, align 4
  br label %8

8:                                                ; preds = %177, %0
  %9 = load i32, i32* %2, align 4
  %10 = load i32, i32* @N, align 4
  %11 = icmp slt i32 %9, %10
  br i1 %11, label %12, label %180

12:                                               ; preds = %8
  call void @llvm.memset.p0i8.i64(i8* align 16 bitcast ([11 x [11 x i32]]* @tmp to i8*), i8 0, i64 484, i1 false)
  store i32 1, i32* %3, align 4
  br label %13

13:                                               ; preds = %173, %12
  %14 = load i32, i32* %3, align 4
  %15 = icmp sle i32 %14, 9
  br i1 %15, label %16, label %176

16:                                               ; preds = %13
  store i32 1, i32* %4, align 4
  br label %17

17:                                               ; preds = %169, %16
  %18 = load i32, i32* %4, align 4
  %19 = icmp sle i32 %18, 9
  br i1 %19, label %20, label %172

20:                                               ; preds = %17
  %21 = load i32, i32* %3, align 4
  %22 = sext i32 %21 to i64
  %23 = getelementptr inbounds [11 x [11 x i32]], [11 x [11 x i32]]* @A, i64 0, i64 %22
  %24 = load i32, i32* %4, align 4
  %25 = sext i32 %24 to i64
  %26 = getelementptr inbounds [11 x i32], [11 x i32]* %23, i64 0, i64 %25
  %27 = load i32, i32* %26, align 4
  %28 = mul nsw i32 2, %27
  %29 = load i32, i32* %3, align 4
  %30 = sext i32 %29 to i64
  %31 = getelementptr inbounds [11 x [11 x i32]], [11 x [11 x i32]]* @tmp, i64 0, i64 %30
  %32 = load i32, i32* %4, align 4
  %33 = sext i32 %32 to i64
  %34 = getelementptr inbounds [11 x i32], [11 x i32]* %31, i64 0, i64 %33
  %35 = load i32, i32* %34, align 4
  %36 = add nsw i32 %35, %28
  store i32 %36, i32* %34, align 4
  %37 = load i32, i32* %3, align 4
  %38 = sext i32 %37 to i64
  %39 = getelementptr inbounds [11 x [11 x i32]], [11 x [11 x i32]]* @A, i64 0, i64 %38
  %40 = load i32, i32* %4, align 4
  %41 = sext i32 %40 to i64
  %42 = getelementptr inbounds [11 x i32], [11 x i32]* %39, i64 0, i64 %41
  %43 = load i32, i32* %42, align 4
  %44 = load i32, i32* %3, align 4
  %45 = sub nsw i32 %44, 1
  %46 = sext i32 %45 to i64
  %47 = getelementptr inbounds [11 x [11 x i32]], [11 x [11 x i32]]* @tmp, i64 0, i64 %46
  %48 = load i32, i32* %4, align 4
  %49 = sext i32 %48 to i64
  %50 = getelementptr inbounds [11 x i32], [11 x i32]* %47, i64 0, i64 %49
  %51 = load i32, i32* %50, align 4
  %52 = add nsw i32 %51, %43
  store i32 %52, i32* %50, align 4
  %53 = load i32, i32* %3, align 4
  %54 = sext i32 %53 to i64
  %55 = getelementptr inbounds [11 x [11 x i32]], [11 x [11 x i32]]* @A, i64 0, i64 %54
  %56 = load i32, i32* %4, align 4
  %57 = sext i32 %56 to i64
  %58 = getelementptr inbounds [11 x i32], [11 x i32]* %55, i64 0, i64 %57
  %59 = load i32, i32* %58, align 4
  %60 = load i32, i32* %3, align 4
  %61 = add nsw i32 %60, 1
  %62 = sext i32 %61 to i64
  %63 = getelementptr inbounds [11 x [11 x i32]], [11 x [11 x i32]]* @tmp, i64 0, i64 %62
  %64 = load i32, i32* %4, align 4
  %65 = sext i32 %64 to i64
  %66 = getelementptr inbounds [11 x i32], [11 x i32]* %63, i64 0, i64 %65
  %67 = load i32, i32* %66, align 4
  %68 = add nsw i32 %67, %59
  store i32 %68, i32* %66, align 4
  %69 = load i32, i32* %3, align 4
  %70 = sext i32 %69 to i64
  %71 = getelementptr inbounds [11 x [11 x i32]], [11 x [11 x i32]]* @A, i64 0, i64 %70
  %72 = load i32, i32* %4, align 4
  %73 = sext i32 %72 to i64
  %74 = getelementptr inbounds [11 x i32], [11 x i32]* %71, i64 0, i64 %73
  %75 = load i32, i32* %74, align 4
  %76 = load i32, i32* %3, align 4
  %77 = sext i32 %76 to i64
  %78 = getelementptr inbounds [11 x [11 x i32]], [11 x [11 x i32]]* @tmp, i64 0, i64 %77
  %79 = load i32, i32* %4, align 4
  %80 = sub nsw i32 %79, 1
  %81 = sext i32 %80 to i64
  %82 = getelementptr inbounds [11 x i32], [11 x i32]* %78, i64 0, i64 %81
  %83 = load i32, i32* %82, align 4
  %84 = add nsw i32 %83, %75
  store i32 %84, i32* %82, align 4
  %85 = load i32, i32* %3, align 4
  %86 = sext i32 %85 to i64
  %87 = getelementptr inbounds [11 x [11 x i32]], [11 x [11 x i32]]* @A, i64 0, i64 %86
  %88 = load i32, i32* %4, align 4
  %89 = sext i32 %88 to i64
  %90 = getelementptr inbounds [11 x i32], [11 x i32]* %87, i64 0, i64 %89
  %91 = load i32, i32* %90, align 4
  %92 = load i32, i32* %3, align 4
  %93 = sext i32 %92 to i64
  %94 = getelementptr inbounds [11 x [11 x i32]], [11 x [11 x i32]]* @tmp, i64 0, i64 %93
  %95 = load i32, i32* %4, align 4
  %96 = add nsw i32 %95, 1
  %97 = sext i32 %96 to i64
  %98 = getelementptr inbounds [11 x i32], [11 x i32]* %94, i64 0, i64 %97
  %99 = load i32, i32* %98, align 4
  %100 = add nsw i32 %99, %91
  store i32 %100, i32* %98, align 4
  %101 = load i32, i32* %3, align 4
  %102 = sext i32 %101 to i64
  %103 = getelementptr inbounds [11 x [11 x i32]], [11 x [11 x i32]]* @A, i64 0, i64 %102
  %104 = load i32, i32* %4, align 4
  %105 = sext i32 %104 to i64
  %106 = getelementptr inbounds [11 x i32], [11 x i32]* %103, i64 0, i64 %105
  %107 = load i32, i32* %106, align 4
  %108 = load i32, i32* %3, align 4
  %109 = sub nsw i32 %108, 1
  %110 = sext i32 %109 to i64
  %111 = getelementptr inbounds [11 x [11 x i32]], [11 x [11 x i32]]* @tmp, i64 0, i64 %110
  %112 = load i32, i32* %4, align 4
  %113 = sub nsw i32 %112, 1
  %114 = sext i32 %113 to i64
  %115 = getelementptr inbounds [11 x i32], [11 x i32]* %111, i64 0, i64 %114
  %116 = load i32, i32* %115, align 4
  %117 = add nsw i32 %116, %107
  store i32 %117, i32* %115, align 4
  %118 = load i32, i32* %3, align 4
  %119 = sext i32 %118 to i64
  %120 = getelementptr inbounds [11 x [11 x i32]], [11 x [11 x i32]]* @A, i64 0, i64 %119
  %121 = load i32, i32* %4, align 4
  %122 = sext i32 %121 to i64
  %123 = getelementptr inbounds [11 x i32], [11 x i32]* %120, i64 0, i64 %122
  %124 = load i32, i32* %123, align 4
  %125 = load i32, i32* %3, align 4
  %126 = sub nsw i32 %125, 1
  %127 = sext i32 %126 to i64
  %128 = getelementptr inbounds [11 x [11 x i32]], [11 x [11 x i32]]* @tmp, i64 0, i64 %127
  %129 = load i32, i32* %4, align 4
  %130 = add nsw i32 %129, 1
  %131 = sext i32 %130 to i64
  %132 = getelementptr inbounds [11 x i32], [11 x i32]* %128, i64 0, i64 %131
  %133 = load i32, i32* %132, align 4
  %134 = add nsw i32 %133, %124
  store i32 %134, i32* %132, align 4
  %135 = load i32, i32* %3, align 4
  %136 = sext i32 %135 to i64
  %137 = getelementptr inbounds [11 x [11 x i32]], [11 x [11 x i32]]* @A, i64 0, i64 %136
  %138 = load i32, i32* %4, align 4
  %139 = sext i32 %138 to i64
  %140 = getelementptr inbounds [11 x i32], [11 x i32]* %137, i64 0, i64 %139
  %141 = load i32, i32* %140, align 4
  %142 = load i32, i32* %3, align 4
  %143 = add nsw i32 %142, 1
  %144 = sext i32 %143 to i64
  %145 = getelementptr inbounds [11 x [11 x i32]], [11 x [11 x i32]]* @tmp, i64 0, i64 %144
  %146 = load i32, i32* %4, align 4
  %147 = sub nsw i32 %146, 1
  %148 = sext i32 %147 to i64
  %149 = getelementptr inbounds [11 x i32], [11 x i32]* %145, i64 0, i64 %148
  %150 = load i32, i32* %149, align 4
  %151 = add nsw i32 %150, %141
  store i32 %151, i32* %149, align 4
  %152 = load i32, i32* %3, align 4
  %153 = sext i32 %152 to i64
  %154 = getelementptr inbounds [11 x [11 x i32]], [11 x [11 x i32]]* @A, i64 0, i64 %153
  %155 = load i32, i32* %4, align 4
  %156 = sext i32 %155 to i64
  %157 = getelementptr inbounds [11 x i32], [11 x i32]* %154, i64 0, i64 %156
  %158 = load i32, i32* %157, align 4
  %159 = load i32, i32* %3, align 4
  %160 = add nsw i32 %159, 1
  %161 = sext i32 %160 to i64
  %162 = getelementptr inbounds [11 x [11 x i32]], [11 x [11 x i32]]* @tmp, i64 0, i64 %161
  %163 = load i32, i32* %4, align 4
  %164 = add nsw i32 %163, 1
  %165 = sext i32 %164 to i64
  %166 = getelementptr inbounds [11 x i32], [11 x i32]* %162, i64 0, i64 %165
  %167 = load i32, i32* %166, align 4
  %168 = add nsw i32 %167, %158
  store i32 %168, i32* %166, align 4
  br label %169

169:                                              ; preds = %20
  %170 = load i32, i32* %4, align 4
  %171 = add nsw i32 %170, 1
  store i32 %171, i32* %4, align 4
  br label %17

172:                                              ; preds = %17
  br label %173

173:                                              ; preds = %172
  %174 = load i32, i32* %3, align 4
  %175 = add nsw i32 %174, 1
  store i32 %175, i32* %3, align 4
  br label %13

176:                                              ; preds = %13
  call void @llvm.memcpy.p0i8.p0i8.i64(i8* align 16 bitcast ([11 x [11 x i32]]* @A to i8*), i8* align 16 bitcast ([11 x [11 x i32]]* @tmp to i8*), i64 484, i1 false)
  br label %177

177:                                              ; preds = %176
  %178 = load i32, i32* %2, align 4
  %179 = add nsw i32 %178, 1
  store i32 %179, i32* %2, align 4
  br label %8

180:                                              ; preds = %8
  store i32 1, i32* %5, align 4
  br label %181

181:                                              ; preds = %207, %180
  %182 = load i32, i32* %5, align 4
  %183 = icmp slt i32 %182, 10
  br i1 %183, label %184, label %210

184:                                              ; preds = %181
  store i32 1, i32* %6, align 4
  br label %185

185:                                              ; preds = %197, %184
  %186 = load i32, i32* %6, align 4
  %187 = icmp slt i32 %186, 9
  br i1 %187, label %188, label %200

188:                                              ; preds = %185
  %189 = load i32, i32* %5, align 4
  %190 = sext i32 %189 to i64
  %191 = getelementptr inbounds [11 x [11 x i32]], [11 x [11 x i32]]* @A, i64 0, i64 %190
  %192 = load i32, i32* %6, align 4
  %193 = sext i32 %192 to i64
  %194 = getelementptr inbounds [11 x i32], [11 x i32]* %191, i64 0, i64 %193
  %195 = load i32, i32* %194, align 4
  %196 = call i32 (i8*, ...) @printf(i8* getelementptr inbounds ([4 x i8], [4 x i8]* @.str.1, i64 0, i64 0), i32 %195)
  br label %197

197:                                              ; preds = %188
  %198 = load i32, i32* %6, align 4
  %199 = add nsw i32 %198, 1
  store i32 %199, i32* %6, align 4
  br label %185

200:                                              ; preds = %185
  %201 = load i32, i32* %5, align 4
  %202 = sext i32 %201 to i64
  %203 = getelementptr inbounds [11 x [11 x i32]], [11 x [11 x i32]]* @A, i64 0, i64 %202
  %204 = getelementptr inbounds [11 x i32], [11 x i32]* %203, i64 0, i64 9
  %205 = load i32, i32* %204, align 4
  %206 = call i32 (i8*, ...) @printf(i8* getelementptr inbounds ([4 x i8], [4 x i8]* @.str.2, i64 0, i64 0), i32 %205)
  br label %207

207:                                              ; preds = %200
  %208 = load i32, i32* %5, align 4
  %209 = add nsw i32 %208, 1
  store i32 %209, i32* %5, align 4
  br label %181

210:                                              ; preds = %181
  ret i32 0
}

declare dso_local i32 @__isoc99_scanf(i8*, ...) #1

; Function Attrs: argmemonly nounwind willreturn
declare void @llvm.memset.p0i8.i64(i8* nocapture writeonly, i8, i64, i1 immarg) #2

; Function Attrs: argmemonly nounwind willreturn
declare void @llvm.memcpy.p0i8.p0i8.i64(i8* noalias nocapture writeonly, i8* noalias nocapture readonly, i64, i1 immarg) #2

declare dso_local i32 @printf(i8*, ...) #1


!llvm.module.flags = !{!0}
!llvm.ident = !{!1}

!0 = !{i32 1, !"wchar_size", i32 4}
!1 = !{!"clang version 10.0.0-4ubuntu1 "}
